target datalayout = "e-m:e-p270:32:32-p271:32:32-p272:64:64-i64:64-i128:128-f80:128-n8:16:32:64-S128"
target triple = "x86_64-pc-linux-gnu"

%"class.llvm::SmallVectorBase" = type { ptr, i32, i32 }
%"class.clang::DeclarationName" = type { i64 }
%"class.clang::SourceLocation" = type { i32 }
%"struct.llvm::detail::PunnedPointer.5" = type { [8 x i8] }
%"class.clang::SourceRange" = type { %"class.clang::SourceLocation", %"class.clang::SourceLocation" }
%"class.llvm::PointerIntPair.0" = type { %"struct.llvm::detail::PunnedPointer.1" }
%"struct.llvm::detail::PunnedPointer.1" = type { [8 x i8] }
%"class.llvm::PointerUnion" = type { %"class.llvm::pointer_union_detail::PointerUnionMembers" }
%"class.llvm::pointer_union_detail::PointerUnionMembers" = type { %"class.llvm::pointer_union_detail::PointerUnionMembers.2" }
%"class.llvm::pointer_union_detail::PointerUnionMembers.2" = type { %"class.llvm::pointer_union_detail::PointerUnionMembers.3" }
%"class.llvm::pointer_union_detail::PointerUnionMembers.3" = type { %"class.llvm::PointerIntPair.4" }
%"class.llvm::PointerIntPair.4" = type { %"struct.llvm::detail::PunnedPointer.5" }
%"class.clang::Decl" = type <{ ptr, %"class.llvm::PointerIntPair.0", %"class.llvm::PointerUnion", %"class.clang::SourceLocation", i32, i8, [7 x i8] }>
%"class.(anonymous namespace)::NestedNameSpecifierValidatorCCC" = type { %"class.clang::CorrectionCandidateCallback", ptr }
%"class.clang::CorrectionCandidateCallback" = type { ptr, i8, i8, i8, i8, i8, i8, i8, i8, ptr, ptr }
%"class.clang::TypoCorrection" = type { %"class.clang::DeclarationName", ptr, %"class.llvm::SmallVector.1141", i32, i32, i32, %"class.clang::SourceRange", i8, i8, %"class.std::vector.1146" }
%"class.llvm::SmallVector.1141" = type { %"class.llvm::SmallVectorImpl.1142", %"struct.llvm::SmallVectorStorage.1145" }
%"class.llvm::SmallVectorImpl.1142" = type { %"class.llvm::SmallVectorTemplateBase.1143" }
%"class.llvm::SmallVectorTemplateBase.1143" = type { %"class.llvm::SmallVectorTemplateCommon.1144" }
%"class.llvm::SmallVectorTemplateCommon.1144" = type { %"class.llvm::SmallVectorBase" }
%"struct.llvm::SmallVectorStorage.1145" = type { [8 x i8] }
%"class.std::vector.1146" = type { %"struct.std::_Vector_base.1147" }
%"struct.std::_Vector_base.1147" = type { %"struct.std::_Vector_base<clang::PartialDiagnostic, std::allocator<clang::PartialDiagnostic>>::_Vector_impl" }
%"struct.std::_Vector_base<clang::PartialDiagnostic, std::allocator<clang::PartialDiagnostic>>::_Vector_impl" = type { %"struct.std::_Vector_base<clang::PartialDiagnostic, std::allocator<clang::PartialDiagnostic>>::_Vector_impl_data" }
%"struct.std::_Vector_base<clang::PartialDiagnostic, std::allocator<clang::PartialDiagnostic>>::_Vector_impl_data" = type { ptr, ptr, ptr }

; Function Attrs: mustprogress nounwind uwtable
define linkonce_odr hidden noundef nonnull align 8 dereferenceable(8) ptr @_ZNK4llvm25SmallVectorTemplateCommonIPN5clang9NamedDeclEvE5frontEv(ptr noundef nonnull align 8 dereferenceable(16) %0) #0 comdat align 2 {
  %2 = alloca ptr, align 8
  store ptr %0, ptr %2, align 8
  %3 = load ptr, ptr %2, align 8
  %4 = call noundef ptr @_ZNK4llvm25SmallVectorTemplateCommonIPN5clang9NamedDeclEvE5beginEv(ptr noundef nonnull align 8 dereferenceable(16) %3)
  %5 = getelementptr inbounds ptr, ptr %4, i64 0
  ret ptr %5
}

; Function Attrs: mustprogress nounwind uwtable
define linkonce_odr hidden noundef zeroext i1 @_ZNK5clang14TypoCorrection9isKeywordEv(ptr noundef nonnull align 8 dereferenceable(88) %0) #0 comdat align 2 {
  %2 = alloca ptr, align 8
  store ptr %0, ptr %2, align 8
  %3 = load ptr, ptr %2, align 8
  %4 = getelementptr inbounds nuw %"class.clang::TypoCorrection", ptr %3, i32 0, i32 2
  %5 = call noundef zeroext i1 @_ZNK4llvm15SmallVectorBaseIjE5emptyEv(ptr noundef nonnull align 8 dereferenceable(16) %4)
  br i1 %5, label %11, label %6

6:                                                ; preds = %1
  %7 = getelementptr inbounds nuw %"class.clang::TypoCorrection", ptr %3, i32 0, i32 2
  %8 = call noundef nonnull align 8 dereferenceable(8) ptr @_ZNK4llvm25SmallVectorTemplateCommonIPN5clang9NamedDeclEvE5frontEv(ptr noundef nonnull align 8 dereferenceable(16) %7)
  %9 = load ptr, ptr %8, align 8
  %10 = icmp eq ptr %9, null
  br label %11

11:                                               ; preds = %6, %1
  %12 = phi i1 [ false, %1 ], [ %10, %6 ]
  ret i1 %12
}

; Function Attrs: mustprogress nounwind uwtable
define linkonce_odr hidden noundef i32 @_ZNK5clang4Decl7getKindEv(ptr noundef nonnull align 8 dereferenceable(33) %0) #0 comdat align 2 {
  %2 = alloca ptr, align 8
  store ptr %0, ptr %2, align 8
  %3 = load ptr, ptr %2, align 8
  %4 = getelementptr inbounds nuw %"class.clang::Decl", ptr %3, i32 0, i32 4
  %5 = load i32, ptr %4, align 4
  %6 = and i32 %5, 127
  ret i32 %6
}

; Function Attrs: mustprogress nounwind uwtable
define linkonce_odr hidden noundef ptr @_ZNK4llvm25SmallVectorTemplateCommonIPN5clang9NamedDeclEvE5beginEv(ptr noundef nonnull align 8 dereferenceable(16) %0) #0 comdat align 2 {
  %2 = alloca ptr, align 8
  store ptr %0, ptr %2, align 8
  %3 = load ptr, ptr %2, align 8
  %4 = getelementptr inbounds nuw %"class.llvm::SmallVectorBase", ptr %3, i32 0, i32 0
  %5 = load ptr, ptr %4, align 8
  ret ptr %5
}

; Function Attrs: mustprogress nounwind uwtable
define linkonce_odr hidden noundef zeroext i1 @_ZNK5clang14TypoCorrection17hasCorrectionDeclEv(ptr noundef nonnull align 8 dereferenceable(88) %0) #0 comdat align 2 {
  %2 = alloca ptr, align 8
  store ptr %0, ptr %2, align 8
  %3 = load ptr, ptr %2, align 8
  %4 = call noundef zeroext i1 @_ZNK5clang14TypoCorrection9isKeywordEv(ptr noundef nonnull align 8 dereferenceable(88) %3)
  br i1 %4, label %9, label %5

5:                                                ; preds = %1
  %6 = getelementptr inbounds nuw %"class.clang::TypoCorrection", ptr %3, i32 0, i32 2
  %7 = call noundef zeroext i1 @_ZNK4llvm15SmallVectorBaseIjE5emptyEv(ptr noundef nonnull align 8 dereferenceable(16) %6)
  %8 = xor i1 %7, true
  br label %9

9:                                                ; preds = %5, %1
  %10 = phi i1 [ false, %1 ], [ %8, %5 ]
  ret i1 %10
}

; Function Attrs: mustprogress nounwind uwtable
define linkonce_odr hidden noundef ptr @_ZN5clang9NamedDecl17getUnderlyingDeclEv(ptr noundef nonnull align 8 dereferenceable(48) %0) #0 comdat align 2 {
  %2 = alloca ptr, align 8
  %3 = alloca ptr, align 8
  store ptr %0, ptr %3, align 8
  %4 = load ptr, ptr %3, align 8
  %5 = call noundef i32 @_ZNK5clang4Decl7getKindEv(ptr noundef nonnull align 8 dereferenceable(33) %4)
  %6 = icmp ne i32 %5, 50
  br i1 %6, label %7, label %17

7:                                                ; preds = %1
  %8 = call noundef i32 @_ZNK5clang4Decl7getKindEv(ptr noundef nonnull align 8 dereferenceable(33) %4)
  %9 = icmp ne i32 %8, 51
  br i1 %9, label %10, label %17

10:                                               ; preds = %7
  %11 = call noundef i32 @_ZNK5clang4Decl7getKindEv(ptr noundef nonnull align 8 dereferenceable(33) %4)
  %12 = icmp ne i32 %11, 73
  br i1 %12, label %13, label %17

13:                                               ; preds = %10
  %14 = call noundef i32 @_ZNK5clang4Decl7getKindEv(ptr noundef nonnull align 8 dereferenceable(33) %4)
  %15 = icmp ne i32 %14, 74
  br i1 %15, label %16, label %17

16:                                               ; preds = %13
  store ptr %4, ptr %2, align 8
  br label %19

17:                                               ; preds = %13, %10, %7, %1
  %18 = call noundef ptr @_ZN5clang9NamedDecl21getUnderlyingDeclImplEv(ptr noundef nonnull align 8 dereferenceable(48) %4) #13
  store ptr %18, ptr %2, align 8
  br label %19

19:                                               ; preds = %17, %16
  %20 = load ptr, ptr %2, align 8
  ret ptr %20
}

; Function Attrs: mustprogress nounwind uwtable
define linkonce_odr hidden noundef ptr @_ZNK5clang14TypoCorrection12getFoundDeclEv(ptr noundef nonnull align 8 dereferenceable(88) %0) #0 comdat align 2 {
  %2 = alloca ptr, align 8
  store ptr %0, ptr %2, align 8
  %3 = load ptr, ptr %2, align 8
  %4 = call noundef zeroext i1 @_ZNK5clang14TypoCorrection17hasCorrectionDeclEv(ptr noundef nonnull align 8 dereferenceable(88) %3)
  br i1 %4, label %5, label %9

5:                                                ; preds = %1
  %6 = getelementptr inbounds nuw %"class.clang::TypoCorrection", ptr %3, i32 0, i32 2
  %7 = call noundef ptr @_ZNK4llvm25SmallVectorTemplateCommonIPN5clang9NamedDeclEvE5beginEv(ptr noundef nonnull align 8 dereferenceable(16) %6)
  %8 = load ptr, ptr %7, align 8
  br label %10

9:                                                ; preds = %1
  br label %10

10:                                               ; preds = %9, %5
  %11 = phi ptr [ %8, %5 ], [ null, %9 ]
  ret ptr %11
}

; Function Attrs: mustprogress nounwind uwtable
define linkonce_odr hidden noundef ptr @_ZNK5clang14TypoCorrection17getCorrectionDeclEv(ptr noundef nonnull align 8 dereferenceable(88) %0) #0 comdat align 2 {
  %2 = alloca ptr, align 8
  %3 = alloca ptr, align 8
  store ptr %0, ptr %2, align 8
  %4 = load ptr, ptr %2, align 8
  %5 = call noundef ptr @_ZNK5clang14TypoCorrection12getFoundDeclEv(ptr noundef nonnull align 8 dereferenceable(88) %4)
  store ptr %5, ptr %3, align 8
  %6 = load ptr, ptr %3, align 8
  %7 = icmp ne ptr %6, null
  br i1 %7, label %8, label %11

8:                                                ; preds = %1
  %9 = load ptr, ptr %3, align 8
  %10 = call noundef ptr @_ZN5clang9NamedDecl17getUnderlyingDeclEv(ptr noundef nonnull align 8 dereferenceable(48) %9)
  br label %12

11:                                               ; preds = %1
  br label %12

12:                                               ; preds = %11, %8
  %13 = phi ptr [ %10, %8 ], [ null, %11 ]
  ret ptr %13
}

; Function Attrs: mustprogress nounwind uwtable
define internal noundef zeroext i1 @_ZN12_GLOBAL__N_131NestedNameSpecifierValidatorCCC17ValidateCandidateERKN5clang14TypoCorrectionE(ptr noundef nonnull align 8 dereferenceable(40) %0, ptr noundef nonnull align 8 dereferenceable(88) %1) unnamed_addr #0 align 2 {
  %3 = alloca ptr, align 8
  %4 = alloca ptr, align 8
  store ptr %0, ptr %3, align 8
  store ptr %1, ptr %4, align 8
  %5 = load ptr, ptr %3, align 8
  %6 = getelementptr inbounds nuw %"class.(anonymous namespace)::NestedNameSpecifierValidatorCCC", ptr %5, i32 0, i32 1
  %7 = load ptr, ptr %6, align 8
  %8 = load ptr, ptr %4, align 8
  %9 = call noundef ptr @_ZNK5clang14TypoCorrection17getCorrectionDeclEv(ptr noundef nonnull align 8 dereferenceable(88) %8)
  %10 = call noundef zeroext i1 @_ZN5clang4Sema31isAcceptableNestedNameSpecifierEPKNS_9NamedDeclEPb(ptr noundef nonnull align 8 dereferenceable(17560) %7, ptr noundef %9, ptr noundef null)
  ret i1 %10
}