; Function Attrs: mustprogress nounwind uwtable
define internal noundef zeroext i1 @_ZN12_GLOBAL__N_131NestedNameSpecifierValidatorCCC17ValidateCandidateERKN5clang14TypoCorrectionE(ptr nocapture noundef nonnull readonly align 8 dereferenceable(40) %0, ptr noundef nonnull align 8 dereferenceable(88) %1) unnamed_addr #0 align 2 {
  %3 = getelementptr inbounds nuw i8, ptr %0, i64 32
  %4 = load ptr, ptr %3, align 8
  %5 = getelementptr inbounds nuw i8, ptr %1, i64 16
  %6 = tail call noundef zeroext i1 @_ZNK4llvm15SmallVectorBaseIjE5emptyEv(ptr noundef nonnull align 8 dereferenceable(16) %5) #15
  br i1 %6, label %_ZNK5clang14TypoCorrection17hasCorrectionDeclEv.exit.i.i, label %_ZNK5clang14TypoCorrection9isKeywordEv.exit.i.i.i

_ZNK5clang14TypoCorrection9isKeywordEv.exit.i.i.i: ; preds = %2
  %7 = load ptr, ptr %5, align 8
  %8 = load ptr, ptr %7, align 8
  %9 = icmp eq ptr %8, null
  br i1 %9, label %_ZNK5clang14TypoCorrection17getCorrectionDeclEv.exit, label %_ZNK5clang14TypoCorrection17hasCorrectionDeclEv.exit.i.i

_ZNK5clang14TypoCorrection17hasCorrectionDeclEv.exit.i.i: ; preds = %_ZNK5clang14TypoCorrection9isKeywordEv.exit.i.i.i, %2
  %10 = tail call noundef zeroext i1 @_ZNK4llvm15SmallVectorBaseIjE5emptyEv(ptr noundef nonnull align 8 dereferenceable(16) %5) #15
  br i1 %10, label %_ZNK5clang14TypoCorrection17getCorrectionDeclEv.exit, label %_ZNK5clang14TypoCorrection12getFoundDeclEv.exit.i

_ZNK5clang14TypoCorrection12getFoundDeclEv.exit.i: ; preds = %_ZNK5clang14TypoCorrection17hasCorrectionDeclEv.exit.i.i
  %11 = load ptr, ptr %5, align 8
  %12 = load ptr, ptr %11, align 8
  %.not.i = icmp eq ptr %12, null
  br i1 %.not.i, label %_ZNK5clang14TypoCorrection17getCorrectionDeclEv.exit, label %13

13:                                               ; preds = %_ZNK5clang14TypoCorrection12getFoundDeclEv.exit.i
  %14 = getelementptr inbounds nuw i8, ptr %12, i64 28
  %15 = load i32, ptr %14, align 4
  %16 = and i32 %15, 127
  switch i32 %16, label %_ZNK5clang14TypoCorrection17getCorrectionDeclEv.exit [
    i32 50, label %17
    i32 51, label %17
    i32 73, label %17
    i32 74, label %17
  ]

17:                                               ; preds = %13, %13, %13, %13
  %18 = tail call noundef ptr @_ZN5clang9NamedDecl21getUnderlyingDeclImplEv(ptr noundef nonnull align 8 dereferenceable(48) %12) #16
  br label %_ZNK5clang14TypoCorrection17getCorrectionDeclEv.exit

_ZNK5clang14TypoCorrection17getCorrectionDeclEv.exit: ; preds = %_ZNK5clang14TypoCorrection9isKeywordEv.exit.i.i.i, %_ZNK5clang14TypoCorrection17hasCorrectionDeclEv.exit.i.i, %_ZNK5clang14TypoCorrection12getFoundDeclEv.exit.i, %13, %17
  %19 = phi ptr [ null, %_ZNK5clang14TypoCorrection12getFoundDeclEv.exit.i ], [ %18, %17 ], [ %12, %13 ], [ null, %_ZNK5clang14TypoCorrection17hasCorrectionDeclEv.exit.i.i ], [ null, %_ZNK5clang14TypoCorrection9isKeywordEv.exit.i.i.i ]
  %20 = tail call noundef zeroext i1 @_ZN5clang4Sema31isAcceptableNestedNameSpecifierEPKNS_9NamedDeclEPb(ptr noundef nonnull align 8 dereferenceable(17560) %4, ptr noundef %19, ptr noundef null)
  ret i1 %20
}